target datalayout = "e-m:e-p270:32:32-p271:32:32-p272:64:64-i64:64-i128:128-f80:128-n8:16:32:64-S128"
target triple = "x86_64-unknown-linux-gnu"

%"class.std::__cxx11::basic_string" = type { %"struct.std::__cxx11::basic_string<char>::_Alloc_hider", i64, %union.anon }
%"struct.std::__cxx11::basic_string<char>::_Alloc_hider" = type { ptr }
%union.anon = type { i64, [8 x i8] }
%"struct.YAML::Scanner::SimpleKey" = type { %"struct.YAML::Mark", i64, ptr, ptr, ptr }
%"struct.YAML::Mark" = type { i32, i32, i32 }
%"struct.YAML::Scanner::IndentMarker" = type { i32, i32, i32, ptr }
%"struct.YAML::Token" = type <{ i32, i32, %"struct.YAML::Mark", [4 x i8], %"class.std::__cxx11::basic_string", %"class.std::vector", i32, [4 x i8] }>
%"class.std::vector" = type { %"struct.std::_Vector_base" }
%"struct.std::_Vector_base" = type { %"struct.std::_Vector_base<std::__cxx11::basic_string<char>, std::allocator<std::__cxx11::basic_string<char>>>::_Vector_impl" }
%"struct.std::_Vector_base<std::__cxx11::basic_string<char>, std::allocator<std::__cxx11::basic_string<char>>>::_Vector_impl" = type { %"struct.std::_Vector_base<std::__cxx11::basic_string<char>, std::allocator<std::__cxx11::basic_string<char>>>::_Vector_impl_data" }
%"struct.std::_Vector_base<std::__cxx11::basic_string<char>, std::allocator<std::__cxx11::basic_string<char>>>::_Vector_impl_data" = type { ptr, ptr, ptr }

; Function Attrs: mustprogress nounwind uwtable
define void @_ZN4YAML7Scanner9SimpleKey10InvalidateEv(ptr noundef nonnull align 8 dereferenceable(48) %this) #4 align 2 {
entry:
  %this.addr = alloca ptr, align 8
  store ptr %this, ptr %this.addr, align 8
  %this1 = load ptr, ptr %this.addr, align 8
  %pIndent = getelementptr inbounds %"struct.YAML::Scanner::SimpleKey", ptr %this1, i32 0, i32 2
  %0 = load ptr, ptr %pIndent, align 8
  %tobool = icmp ne ptr %0, null
  br i1 %tobool, label %if.then, label %if.end

if.then:                                          ; preds = %entry
  %pIndent2 = getelementptr inbounds %"struct.YAML::Scanner::SimpleKey", ptr %this1, i32 0, i32 2
  %1 = load ptr, ptr %pIndent2, align 8
  %status = getelementptr inbounds %"struct.YAML::Scanner::IndentMarker", ptr %1, i32 0, i32 2
  store i32 1, ptr %status, align 8
  br label %if.end

if.end:                                           ; preds = %if.then, %entry
  %pMapStart = getelementptr inbounds %"struct.YAML::Scanner::SimpleKey", ptr %this1, i32 0, i32 3
  %2 = load ptr, ptr %pMapStart, align 8
  %tobool3 = icmp ne ptr %2, null
  br i1 %tobool3, label %if.then4, label %if.end7

if.then4:                                         ; preds = %if.end
  %pMapStart5 = getelementptr inbounds %"struct.YAML::Scanner::SimpleKey", ptr %this1, i32 0, i32 3
  %3 = load ptr, ptr %pMapStart5, align 8
  %status6 = getelementptr inbounds %"struct.YAML::Token", ptr %3, i32 0, i32 0
  store i32 1, ptr %status6, align 8
  br label %if.end7

if.end7:                                          ; preds = %if.then4, %if.end
  %pKey = getelementptr inbounds %"struct.YAML::Scanner::SimpleKey", ptr %this1, i32 0, i32 4
  %4 = load ptr, ptr %pKey, align 8
  %tobool8 = icmp ne ptr %4, null
  br i1 %tobool8, label %if.then9, label %if.end12

if.then9:                                         ; preds = %if.end7
  %pKey10 = getelementptr inbounds %"struct.YAML::Scanner::SimpleKey", ptr %this1, i32 0, i32 4
  %5 = load ptr, ptr %pKey10, align 8
  %status11 = getelementptr inbounds %"struct.YAML::Token", ptr %5, i32 0, i32 0
  store i32 1, ptr %status11, align 8
  br label %if.end12

if.end12:                                         ; preds = %if.then9, %if.end7
  ret void
}